target datalayout = "e-m:e-p270:32:32-p271:32:32-p272:64:64-i64:64-i128:128-f80:128-n8:16:32:64-S128"
target triple = "x86_64-pc-linux-gnu"

%struct.darktable_t = type { %struct.dt_codepath_t, i32, i32, ptr, ptr, ptr, ptr, ptr, ptr, ptr, ptr, ptr, ptr, ptr, ptr, ptr, ptr, ptr, ptr, ptr, ptr, ptr, ptr, ptr, ptr, ptr, ptr, ptr, ptr, ptr, [64 x %struct.dt_pthread_mutex_t], %struct.dt_pthread_mutex_t, %struct.dt_pthread_mutex_t, %struct.dt_pthread_mutex_t, %struct.dt_pthread_mutex_t, %struct.dt_pthread_mutex_t, ptr, ptr, ptr, ptr, ptr, ptr, ptr, ptr, ptr, ptr, ptr, ptr, ptr, %struct.dt_lua_state_t, ptr, double, ptr, i32, [47 x i32], i32, i32, ptr, ptr, %struct.dt_sys_resources_t, %struct.dt_backthumb_t, %struct.dt_gimp_t }
%struct.dt_codepath_t = type { i8, [3 x i8] }
%struct.dt_pthread_mutex_t = type { %union.pthread_mutex_t }
%union.pthread_mutex_t = type { %struct.__pthread_mutex_s }
%struct.__pthread_mutex_s = type { i32, i32, i32, i32, i32, i16, i16, %struct.__pthread_internal_list }
%struct.__pthread_internal_list = type { ptr, ptr }
%struct.dt_lua_state_t = type { i32 }
%struct.dt_sys_resources_t = type { i64, i64, ptr, ptr, i32 }
%struct.dt_backthumb_t = type { double, double, i32, i32, i32, i32 }
%struct.dt_gimp_t = type { i32, ptr, ptr, i32, i32 }
%struct.dt_lib_module_t = type { %struct.dt_action_t, ptr, ptr, ptr, ptr, ptr, ptr, ptr, ptr, ptr, ptr, ptr, ptr, ptr, ptr, ptr, ptr, ptr, ptr, ptr, ptr, ptr, ptr, ptr, ptr, ptr, ptr, ptr, ptr, ptr, ptr, [128 x i8], ptr, ptr, i32, ptr, ptr, ptr, i32 }
%struct.dt_action_t = type { i32, ptr, ptr, ptr, ptr, ptr }
%struct.dt_lib_tool_preferences_t = type { ptr, ptr, ptr, ptr, ptr, ptr, ptr, ptr, ptr, ptr, ptr, ptr, ptr, ptr, ptr, ptr, ptr, ptr, ptr, ptr, ptr, ptr, ptr, ptr, ptr, i32 }

@darktable = external global %struct.darktable_t, align 8
@.str.39 = private unnamed_addr constant [39 x i8] c"plugins/lighttable/overlays/culling/%d\00", align 1
@.str.42 = private unnamed_addr constant [39 x i8] c"plugins/lighttable/tooltips/culling/%d\00", align 1

; Function Attrs: nounwind uwtable
define internal void @_overlays_toggle_culling_button(ptr noundef %0, ptr noundef %1) #0 {
  %3 = alloca ptr, align 8
  %4 = alloca ptr, align 8
  %5 = alloca ptr, align 8
  %6 = alloca i32, align 4
  %7 = alloca i32, align 4
  %8 = alloca i32, align 4
  %9 = alloca ptr, align 8
  store ptr %0, ptr %3, align 8, !tbaa !68
  store ptr %1, ptr %4, align 8, !tbaa !6
  call void @llvm.lifetime.start.p0(i64 8, ptr %5) #9
  %10 = load ptr, ptr %4, align 8, !tbaa !6
  %11 = getelementptr inbounds nuw %struct.dt_lib_module_t, ptr %10, i32 0, i32 30
  %12 = load ptr, ptr %11, align 8, !tbaa !13
  store ptr %12, ptr %5, align 8, !tbaa !11
  %13 = load ptr, ptr %5, align 8, !tbaa !11
  %14 = getelementptr inbounds nuw %struct.dt_lib_tool_preferences_t, ptr %13, i32 0, i32 25
  %15 = load i32, ptr %14, align 8, !tbaa !96
  %16 = icmp ne i32 %15, 0
  br i1 %16, label %17, label %18

17:                                               ; preds = %2
  store i32 1, ptr %6, align 4
  br label %82

18:                                               ; preds = %2
  call void @llvm.lifetime.start.p0(i64 4, ptr %7) #9
  store i32 6, ptr %7, align 4, !tbaa !97
  %19 = load ptr, ptr %5, align 8, !tbaa !11
  %20 = getelementptr inbounds nuw %struct.dt_lib_tool_preferences_t, ptr %19, i32 0, i32 19
  %21 = load ptr, ptr %20, align 8, !tbaa !83
  %22 = call i64 @gtk_toggle_button_get_type() #11
  %23 = call ptr @g_type_check_instance_cast(ptr noundef %21, i64 noundef %22)
  %24 = call i32 @gtk_toggle_button_get_active(ptr noundef %23)
  %25 = icmp ne i32 %24, 0
  br i1 %25, label %26, label %27

26:                                               ; preds = %18
  store i32 0, ptr %7, align 4, !tbaa !97
  br label %47

27:                                               ; preds = %18
  %28 = load ptr, ptr %5, align 8, !tbaa !11
  %29 = getelementptr inbounds nuw %struct.dt_lib_tool_preferences_t, ptr %28, i32 0, i32 20
  %30 = load ptr, ptr %29, align 8, !tbaa !84
  %31 = call i64 @gtk_toggle_button_get_type() #11
  %32 = call ptr @g_type_check_instance_cast(ptr noundef %30, i64 noundef %31)
  %33 = call i32 @gtk_toggle_button_get_active(ptr noundef %32)
  %34 = icmp ne i32 %33, 0
  br i1 %34, label %35, label %36

35:                                               ; preds = %27
  store i32 3, ptr %7, align 4, !tbaa !97
  br label %46

36:                                               ; preds = %27
  %37 = load ptr, ptr %5, align 8, !tbaa !11
  %38 = getelementptr inbounds nuw %struct.dt_lib_tool_preferences_t, ptr %37, i32 0, i32 21
  %39 = load ptr, ptr %38, align 8, !tbaa !85
  %40 = call i64 @gtk_toggle_button_get_type() #11
  %41 = call ptr @g_type_check_instance_cast(ptr noundef %39, i64 noundef %40)
  %42 = call i32 @gtk_toggle_button_get_active(ptr noundef %41)
  %43 = icmp ne i32 %42, 0
  br i1 %43, label %44, label %45

44:                                               ; preds = %36
  store i32 4, ptr %7, align 4, !tbaa !97
  br label %45

45:                                               ; preds = %44, %36
  br label %46

46:                                               ; preds = %45, %35
  br label %47

47:                                               ; preds = %46, %26
  call void @llvm.lifetime.start.p0(i64 4, ptr %8) #9
  store i32 0, ptr %8, align 4, !tbaa !97
  %48 = load ptr, ptr getelementptr inbounds nuw (%struct.darktable_t, ptr @darktable, i32 0, i32 11), align 8, !tbaa !98
  %49 = call i32 @dt_view_lighttable_preview_state(ptr noundef %48)
  %50 = icmp ne i32 %49, 0
  br i1 %50, label %51, label %52

51:                                               ; preds = %47
  store i32 1, ptr %8, align 4, !tbaa !97
  br label %52

52:                                               ; preds = %51, %47
  call void @llvm.lifetime.start.p0(i64 8, ptr %9) #9
  %53 = load i32, ptr %8, align 4, !tbaa !97
  %54 = call noalias ptr (ptr, ...) @g_strdup_printf(ptr noundef @.str.39, i32 noundef %53)
  store ptr %54, ptr %9, align 8, !tbaa !106
  %55 = load ptr, ptr %9, align 8, !tbaa !106
  %56 = load i32, ptr %7, align 4, !tbaa !97
  call void @dt_conf_set_int(ptr noundef %55, i32 noundef %56)
  %57 = load ptr, ptr %9, align 8, !tbaa !106
  call void @g_free(ptr noundef %57)
  %58 = load i32, ptr %8, align 4, !tbaa !97
  %59 = call noalias ptr (ptr, ...) @g_strdup_printf(ptr noundef @.str.42, i32 noundef %58)
  store ptr %59, ptr %9, align 8, !tbaa !106
  %60 = load ptr, ptr %9, align 8, !tbaa !106
  %61 = load ptr, ptr %5, align 8, !tbaa !11
  %62 = getelementptr inbounds nuw %struct.dt_lib_tool_preferences_t, ptr %61, i32 0, i32 24
  %63 = load ptr, ptr %62, align 8, !tbaa !88
  %64 = call i64 @gtk_toggle_button_get_type() #11
  %65 = call ptr @g_type_check_instance_cast(ptr noundef %63, i64 noundef %64)
  %66 = call i32 @gtk_toggle_button_get_active(ptr noundef %65)
  call void @dt_conf_set_bool(ptr noundef %60, i32 noundef %66)
  %67 = load ptr, ptr %9, align 8, !tbaa !106
  call void @g_free(ptr noundef %67)
  %68 = load ptr, ptr getelementptr inbounds nuw (%struct.darktable_t, ptr @darktable, i32 0, i32 11), align 8, !tbaa !98
  call void @dt_view_lighttable_culling_preview_reload_overlays(ptr noundef %68)
  %69 = load ptr, ptr %5, align 8, !tbaa !11
  %70 = getelementptr inbounds nuw %struct.dt_lib_tool_preferences_t, ptr %69, i32 0, i32 23
  %71 = load ptr, ptr %70, align 8, !tbaa !87
  %72 = load i32, ptr %7, align 4, !tbaa !97
  %73 = icmp eq i32 %72, 6
  %74 = zext i1 %73 to i32
  call void @gtk_widget_set_sensitive(ptr noundef %71, i32 noundef %74)
  %75 = load i32, ptr %7, align 4, !tbaa !97
  %76 = icmp ne i32 %75, 6
  br i1 %76, label %77, label %81

77:                                               ; preds = %52
  %78 = load ptr, ptr %5, align 8, !tbaa !11
  %79 = getelementptr inbounds nuw %struct.dt_lib_tool_preferences_t, ptr %78, i32 0, i32 5
  %80 = load ptr, ptr %79, align 8, !tbaa !67
  call void @gtk_widget_hide(ptr noundef %80)
  br label %81

81:                                               ; preds = %77, %52
  call void @llvm.lifetime.end.p0(i64 8, ptr %9) #9
  call void @llvm.lifetime.end.p0(i64 4, ptr %8) #9
  call void @llvm.lifetime.end.p0(i64 4, ptr %7) #9
  store i32 0, ptr %6, align 4
  br label %82

82:                                               ; preds = %81, %17
  call void @llvm.lifetime.end.p0(i64 8, ptr %5) #9
  %83 = load i32, ptr %6, align 4
  switch i32 %83, label %85 [
    i32 0, label %84
    i32 1, label %84
  ]

84:                                               ; preds = %82, %82
  ret void

85:                                               ; preds = %82
  unreachable
}