; Function Attrs: nounwind uwtable
define internal void @_overlays_toggle_culling_button(ptr readnone captures(none) %0, ptr noundef readonly captures(none) %1) #1 {
  %3 = getelementptr inbounds nuw i8, ptr %1, i64 280
  %4 = load ptr, ptr %3, align 8, !tbaa !6
  %5 = getelementptr inbounds nuw i8, ptr %4, i64 200
  %6 = load i32, ptr %5, align 8, !tbaa !91
  %.not = icmp eq i32 %6, 0
  br i1 %.not, label %7, label %40

7:                                                ; preds = %2
  %8 = getelementptr inbounds nuw i8, ptr %4, i64 152
  %9 = load ptr, ptr %8, align 8, !tbaa !78
  %10 = tail call i64 @gtk_toggle_button_get_type() #12
  %11 = tail call ptr @g_type_check_instance_cast(ptr noundef %9, i64 noundef %10) #10
  %12 = tail call i32 @gtk_toggle_button_get_active(ptr noundef %11) #10
  %.not17 = icmp eq i32 %12, 0
  br i1 %.not17, label %13, label %24

13:                                               ; preds = %7
  %14 = getelementptr inbounds nuw i8, ptr %4, i64 160
  %15 = load ptr, ptr %14, align 8, !tbaa !79
  %16 = tail call ptr @g_type_check_instance_cast(ptr noundef %15, i64 noundef %10) #10
  %17 = tail call i32 @gtk_toggle_button_get_active(ptr noundef %16) #10
  %.not18 = icmp eq i32 %17, 0
  br i1 %.not18, label %18, label %24

18:                                               ; preds = %13
  %19 = getelementptr inbounds nuw i8, ptr %4, i64 168
  %20 = load ptr, ptr %19, align 8, !tbaa !80
  %21 = tail call ptr @g_type_check_instance_cast(ptr noundef %20, i64 noundef %10) #10
  %22 = tail call i32 @gtk_toggle_button_get_active(ptr noundef %21) #10
  %.not19 = icmp eq i32 %22, 0
  br i1 %.not19, label %24, label %23

23:                                               ; preds = %18
  br label %24

24:                                               ; preds = %13, %7, %23, %18
  %25 = phi i32 [ 0, %23 ], [ 1, %18 ], [ 0, %7 ], [ 0, %13 ]
  %.not21 = phi i1 [ false, %23 ], [ true, %18 ], [ false, %7 ], [ false, %13 ]
  %.016 = phi i32 [ 4, %23 ], [ 6, %18 ], [ 0, %7 ], [ 3, %13 ]
  %26 = load ptr, ptr getelementptr inbounds nuw (i8, ptr @darktable, i64 80), align 8, !tbaa !92
  %27 = tail call i32 @dt_view_lighttable_preview_state(ptr noundef %26) #10
  %.not20 = icmp ne i32 %27, 0
  %spec.select = zext i1 %.not20 to i32
  %28 = tail call noalias ptr (ptr, ...) @g_strdup_printf(ptr noundef nonnull @.str.39, i32 noundef %spec.select) #10
  tail call void @dt_conf_set_int(ptr noundef %28, i32 noundef %.016) #10
  tail call void @g_free(ptr noundef %28) #10
  %29 = tail call noalias ptr (ptr, ...) @g_strdup_printf(ptr noundef nonnull @.str.42, i32 noundef %spec.select) #10
  %30 = getelementptr inbounds nuw i8, ptr %4, i64 192
  %31 = load ptr, ptr %30, align 8, !tbaa !83
  %32 = tail call ptr @g_type_check_instance_cast(ptr noundef %31, i64 noundef %10) #10
  %33 = tail call i32 @gtk_toggle_button_get_active(ptr noundef %32) #10
  tail call void @dt_conf_set_bool(ptr noundef %29, i32 noundef %33) #10
  tail call void @g_free(ptr noundef %29) #10
  %34 = load ptr, ptr getelementptr inbounds nuw (i8, ptr @darktable, i64 80), align 8, !tbaa !92
  tail call void @dt_view_lighttable_culling_preview_reload_overlays(ptr noundef %34) #10
  %35 = getelementptr inbounds nuw i8, ptr %4, i64 184
  %36 = load ptr, ptr %35, align 8, !tbaa !82
  tail call void @gtk_widget_set_sensitive(ptr noundef %36, i32 noundef %25) #10
  br i1 %.not21, label %40, label %37

37:                                               ; preds = %24
  %38 = getelementptr inbounds nuw i8, ptr %4, i64 40
  %39 = load ptr, ptr %38, align 8, !tbaa !63
  tail call void @gtk_widget_hide(ptr noundef %39) #10
  br label %40

40:                                               ; preds = %24, %37, %2
  ret void
}